; Function Attrs: mustprogress nofree norecurse nosync nounwind willreturn memory(argmem: readwrite) uwtable
define hidden ptr @nghttp2_cpymem(ptr noundef writeonly %0, ptr noundef readonly captures(none) %1, i64 noundef %2) local_unnamed_addr #4 {
  %4 = icmp eq i64 %2, 0
  br i1 %4, label %7, label %5

5:                                                ; preds = %3
  tail call void @llvm.memcpy.p0.p0.i64(ptr align 1 %0, ptr align 1 %1, i64 %2, i1 false)
  %6 = getelementptr inbounds nuw i8, ptr %0, i64 %2
  br label %7

7:                                                ; preds = %3, %5
  %.0 = phi ptr [ %6, %5 ], [ %0, %3 ]
  ret ptr %.0
}